target datalayout = "e-m:e-p270:32:32-p271:32:32-p272:64:64-i64:64-i128:128-f80:128-n8:16:32:64-S128"
target triple = "x86_64-unknown-linux-gnu"

%struct.CRYPTO_EX_DATA_CLASS = type { %struct.CRYPTO_STATIC_MUTEX, ptr, i8 }
%struct.CRYPTO_STATIC_MUTEX = type { %union.pthread_rwlock_t }
%union.pthread_rwlock_t = type { %struct.__pthread_rwlock_arch_t }
%struct.__pthread_rwlock_arch_t = type { i32, i32, i32, i32, i32, i32, i32, i32, i8, [7 x i8], i64, i32 }

@g_ex_data_class = internal global %struct.CRYPTO_EX_DATA_CLASS zeroinitializer, align 8

; Function Attrs: nounwind uwtable
define hidden i32 @DH_get_ex_new_index(i64 noundef %argl, ptr noundef %argp, ptr noundef %unused, ptr noundef %dup_func, ptr noundef %free_func) #0 {
entry:
  %retval = alloca i32, align 4
  %argl.addr = alloca i64, align 8
  %argp.addr = alloca ptr, align 8
  %unused.addr = alloca ptr, align 8
  %dup_func.addr = alloca ptr, align 8
  %free_func.addr = alloca ptr, align 8
  %index = alloca i32, align 4
  store i64 %argl, ptr %argl.addr, align 8
  store ptr %argp, ptr %argp.addr, align 8
  store ptr %unused, ptr %unused.addr, align 8
  store ptr %dup_func, ptr %dup_func.addr, align 8
  store ptr %free_func, ptr %free_func.addr, align 8
  %0 = load i64, ptr %argl.addr, align 8
  %1 = load ptr, ptr %argp.addr, align 8
  %2 = load ptr, ptr %dup_func.addr, align 8
  %3 = load ptr, ptr %free_func.addr, align 8
  %call = call i32 @CRYPTO_get_ex_new_index(ptr noundef @g_ex_data_class, ptr noundef %index, i64 noundef %0, ptr noundef %1, ptr noundef %2, ptr noundef %3)
  %tobool = icmp ne i32 %call, 0
  br i1 %tobool, label %if.end, label %if.then

if.then:                                          ; preds = %entry
  store i32 -1, ptr %retval, align 4
  br label %return

if.end:                                           ; preds = %entry
  %4 = load i32, ptr %index, align 4
  store i32 %4, ptr %retval, align 4
  br label %return

return:                                           ; preds = %if.end, %if.then
  %5 = load i32, ptr %retval, align 4
  ret i32 %5
}