; Function Attrs: nounwind uwtable
define hidden i32 @DH_get_ex_new_index(i64 noundef %argl, ptr noundef %argp, ptr noundef readnone captures(none) %unused, ptr noundef %dup_func, ptr noundef %free_func) local_unnamed_addr #0 {
entry:
  %index = alloca i32, align 4
  %call = call i32 @CRYPTO_get_ex_new_index(ptr noundef nonnull @g_ex_data_class, ptr noundef nonnull %index, i64 noundef %argl, ptr noundef %argp, ptr noundef %dup_func, ptr noundef %free_func) #4
  %tobool.not = icmp eq i32 %call, 0
  %0 = load i32, ptr %index, align 4
  %retval.0 = select i1 %tobool.not, i32 -1, i32 %0
  ret i32 %retval.0
}